; Function Attrs: nounwind uwtable
define dso_local void @ExecIndexEvalRuntimeKeys(ptr noundef %0, ptr noundef readonly captures(none) %1, i32 noundef %2) local_unnamed_addr #0 {
  %4 = alloca i8, align 1
  %5 = getelementptr inbounds nuw i8, ptr %0, i64 40
  %6 = load ptr, ptr %5, align 8
  %7 = load ptr, ptr @CurrentMemoryContext, align 8
  store ptr %6, ptr @CurrentMemoryContext, align 8
  %8 = icmp sgt i32 %2, 0
  br i1 %8, label %.lr.ph.preheader, label %._crit_edge

.lr.ph.preheader:                                 ; preds = %3
  %wide.trip.count = zext nneg i32 %2 to i64
  br label %.lr.ph

.lr.ph:                                           ; preds = %.lr.ph.preheader, %34
  %indvars.iv = phi i64 [ 0, %.lr.ph.preheader ], [ %indvars.iv.next, %34 ]
  %9 = getelementptr inbounds nuw %struct.IndexRuntimeKeyInfo, ptr %1, i64 %indvars.iv
  %10 = load ptr, ptr %9, align 8
  %11 = getelementptr inbounds nuw i8, ptr %9, i64 8
  %12 = load ptr, ptr %11, align 8
  call void @llvm.lifetime.start.p0(i64 1, ptr nonnull %4) #7
  %13 = getelementptr inbounds nuw i8, ptr %12, i64 32
  %14 = load ptr, ptr %13, align 8
  %15 = call i64 %14(ptr noundef %12, ptr noundef %0, ptr noundef nonnull %4) #7
  %16 = load i8, ptr %4, align 1, !range !4, !noundef !5
  %17 = trunc nuw i8 %16 to i1
  br i1 %17, label %18, label %22

18:                                               ; preds = %.lr.ph
  %19 = getelementptr inbounds nuw i8, ptr %10, i64 64
  store i64 %15, ptr %19, align 8
  %20 = load i32, ptr %10, align 8
  %21 = or i32 %20, 1
  br label %34

22:                                               ; preds = %.lr.ph
  %23 = getelementptr inbounds nuw i8, ptr %9, i64 16
  %24 = load i8, ptr %23, align 8, !range !4, !noundef !5
  %25 = trunc nuw i8 %24 to i1
  br i1 %25, label %26, label %30

26:                                               ; preds = %22
  %27 = inttoptr i64 %15 to ptr
  %28 = call ptr @pg_detoast_datum(ptr noundef %27) #7
  %29 = ptrtoint ptr %28 to i64
  br label %30

30:                                               ; preds = %26, %22
  %.0 = phi i64 [ %29, %26 ], [ %15, %22 ]
  %31 = getelementptr inbounds nuw i8, ptr %10, i64 64
  store i64 %.0, ptr %31, align 8
  %32 = load i32, ptr %10, align 8
  %33 = and i32 %32, -2
  br label %34

34:                                               ; preds = %30, %18
  %storemerge = phi i32 [ %33, %30 ], [ %21, %18 ]
  store i32 %storemerge, ptr %10, align 8
  call void @llvm.lifetime.end.p0(i64 1, ptr nonnull %4) #7
  %indvars.iv.next = add nuw nsw i64 %indvars.iv, 1
  %exitcond.not = icmp eq i64 %indvars.iv.next, %wide.trip.count
  br i1 %exitcond.not, label %._crit_edge, label %.lr.ph, !llvm.loop !6

._crit_edge:                                      ; preds = %34, %3
  store ptr %7, ptr @CurrentMemoryContext, align 8
  ret void
}